target datalayout = "e-m:e-p270:32:32-p271:32:32-p272:64:64-i64:64-i128:128-f80:128-n8:16:32:64-S128"
target triple = "x86_64-unknown-linux-gnu"

%"class.EA::StdC::Stopwatch" = type { i64, i64, i32, float }

@_ZN12_GLOBAL__N_137mfStopwatchCyclesToMinutesCoefficientE = internal global float 0.000000e+00, align 4
@_ZN12_GLOBAL__N_137mfStopwatchCyclesToSecondsCoefficientE = internal global float 0.000000e+00, align 4
@_ZN12_GLOBAL__N_142mfStopwatchCyclesToMillisecondsCoefficientE = internal global float 0.000000e+00, align 4
@_ZN12_GLOBAL__N_142mfStopwatchCyclesToMicrosecondsCoefficientE = internal global float 0.000000e+00, align 4
@_ZN12_GLOBAL__N_141mfStopwatchCyclesToNanosecondsCoefficientE = internal global float 0.000000e+00, align 4

; Function Attrs: mustprogress nounwind uwtable
define dso_local void @_ZN2EA4StdC9Stopwatch8SetUnitsEi(ptr noundef nonnull align 8 dereferenceable(24) %this, i32 noundef %nUnits) #1 align 2 {
entry:
  %this.addr = alloca ptr, align 8
  %nUnits.addr = alloca i32, align 4
  store ptr %this, ptr %this.addr, align 8
  store i32 %nUnits, ptr %nUnits.addr, align 4
  %this1 = load ptr, ptr %this.addr, align 8
  %0 = load i32, ptr %nUnits.addr, align 4
  %mnUnits = getelementptr inbounds %"class.EA::StdC::Stopwatch", ptr %this1, i32 0, i32 2
  store i32 %0, ptr %mnUnits, align 8
  %mfStopwatchCyclesToUnitsCoefficient = getelementptr inbounds %"class.EA::StdC::Stopwatch", ptr %this1, i32 0, i32 3
  store float 1.000000e+00, ptr %mfStopwatchCyclesToUnitsCoefficient, align 4
  %mnUnits2 = getelementptr inbounds %"class.EA::StdC::Stopwatch", ptr %this1, i32 0, i32 2
  %1 = load i32, ptr %mnUnits2, align 8
  switch i32 %1, label %sw.epilog [
    i32 1, label %sw.bb
    i32 0, label %sw.bb4
    i32 2, label %sw.bb6
    i32 3, label %sw.bb8
    i32 4, label %sw.bb10
    i32 5, label %sw.bb12
    i32 6, label %sw.bb14
  ]

sw.bb:                                            ; preds = %entry
  %mfStopwatchCyclesToUnitsCoefficient3 = getelementptr inbounds %"class.EA::StdC::Stopwatch", ptr %this1, i32 0, i32 3
  store float 1.000000e+00, ptr %mfStopwatchCyclesToUnitsCoefficient3, align 4
  br label %sw.epilog

sw.bb4:                                           ; preds = %entry
  %mfStopwatchCyclesToUnitsCoefficient5 = getelementptr inbounds %"class.EA::StdC::Stopwatch", ptr %this1, i32 0, i32 3
  store float 1.000000e+00, ptr %mfStopwatchCyclesToUnitsCoefficient5, align 4
  br label %sw.epilog

sw.bb6:                                           ; preds = %entry
  %2 = load float, ptr @_ZN12_GLOBAL__N_141mfStopwatchCyclesToNanosecondsCoefficientE, align 4
  %mfStopwatchCyclesToUnitsCoefficient7 = getelementptr inbounds %"class.EA::StdC::Stopwatch", ptr %this1, i32 0, i32 3
  store float %2, ptr %mfStopwatchCyclesToUnitsCoefficient7, align 4
  br label %sw.epilog

sw.bb8:                                           ; preds = %entry
  %3 = load float, ptr @_ZN12_GLOBAL__N_142mfStopwatchCyclesToMicrosecondsCoefficientE, align 4
  %mfStopwatchCyclesToUnitsCoefficient9 = getelementptr inbounds %"class.EA::StdC::Stopwatch", ptr %this1, i32 0, i32 3
  store float %3, ptr %mfStopwatchCyclesToUnitsCoefficient9, align 4
  br label %sw.epilog

sw.bb10:                                          ; preds = %entry
  %4 = load float, ptr @_ZN12_GLOBAL__N_142mfStopwatchCyclesToMillisecondsCoefficientE, align 4
  %mfStopwatchCyclesToUnitsCoefficient11 = getelementptr inbounds %"class.EA::StdC::Stopwatch", ptr %this1, i32 0, i32 3
  store float %4, ptr %mfStopwatchCyclesToUnitsCoefficient11, align 4
  br label %sw.epilog

sw.bb12:                                          ; preds = %entry
  %5 = load float, ptr @_ZN12_GLOBAL__N_137mfStopwatchCyclesToSecondsCoefficientE, align 4
  %mfStopwatchCyclesToUnitsCoefficient13 = getelementptr inbounds %"class.EA::StdC::Stopwatch", ptr %this1, i32 0, i32 3
  store float %5, ptr %mfStopwatchCyclesToUnitsCoefficient13, align 4
  br label %sw.epilog

sw.bb14:                                          ; preds = %entry
  %6 = load float, ptr @_ZN12_GLOBAL__N_137mfStopwatchCyclesToMinutesCoefficientE, align 4
  %mfStopwatchCyclesToUnitsCoefficient15 = getelementptr inbounds %"class.EA::StdC::Stopwatch", ptr %this1, i32 0, i32 3
  store float %6, ptr %mfStopwatchCyclesToUnitsCoefficient15, align 4
  br label %sw.epilog

sw.epilog:                                        ; preds = %sw.bb14, %sw.bb12, %sw.bb10, %sw.bb8, %sw.bb6, %sw.bb4, %sw.bb, %entry
  ret void
}