; Function Attrs: mustprogress nofree norecurse nosync nounwind willreturn memory(read, argmem: readwrite, inaccessiblemem: none) uwtable
define dso_local void @_ZN2EA4StdC9Stopwatch8SetUnitsEi(ptr noundef nonnull writeonly align 8 captures(none) dereferenceable(24) initializes((16, 24)) %this, i32 noundef %nUnits) local_unnamed_addr #3 align 2 {
entry:
  %mnUnits = getelementptr inbounds nuw i8, ptr %this, i64 16
  store i32 %nUnits, ptr %mnUnits, align 8
  %mfStopwatchCyclesToUnitsCoefficient = getelementptr inbounds nuw i8, ptr %this, i64 20
  store float 1.000000e+00, ptr %mfStopwatchCyclesToUnitsCoefficient, align 4
  %switch.tableidx = add i32 %nUnits, -2
  %0 = icmp ult i32 %switch.tableidx, 5
  br i1 %0, label %switch.lookup, label %sw.epilog

switch.lookup:                                    ; preds = %entry
  %1 = zext nneg i32 %switch.tableidx to i64
  %switch.gep = getelementptr inbounds nuw [5 x ptr], ptr @switch.table._ZNK2EA4StdC9Stopwatch14GetElapsedTimeEv, i64 0, i64 %1
  %switch.load = load ptr, ptr %switch.gep, align 8
  %2 = load float, ptr %switch.load, align 4
  store float %2, ptr %mfStopwatchCyclesToUnitsCoefficient, align 4
  br label %sw.epilog

sw.epilog:                                        ; preds = %entry, %switch.lookup
  ret void
}